; ModuleID = '26/309.cpp'
source_filename = "26/309.cpp"
target datalayout = "e-m:e-p270:32:32-p271:32:32-p272:64:64-i64:64-f80:128-n8:16:32:64-S128"
target triple = "x86_64-pc-linux-gnu"

%"class.std::ios_base::Init" = type { i8 }
%"class.std::basic_istream" = type { i32 (...)**, i64, %"class.std::basic_ios" }
%"class.std::basic_ios" = type { %"class.std::ios_base", %"class.std::basic_ostream"*, i8, i8, %"class.std::basic_streambuf"*, %"class.std::ctype"*, %"class.std::num_put"*, %"class.std::num_get"* }
%"class.std::ios_base" = type { i32 (...)**, i64, i64, i32, i32, i32, %"struct.std::ios_base::_Callback_list"*, %"struct.std::ios_base::_Words", [8 x %"struct.std::ios_base::_Words"], i32, %"struct.std::ios_base::_Words"*, %"class.std::locale" }
%"struct.std::ios_base::_Callback_list" = type { %"struct.std::ios_base::_Callback_list"*, void (i32, %"class.std::ios_base"*, i32)*, i32, i32 }
%"struct.std::ios_base::_Words" = type { i8*, i64 }
%"class.std::locale" = type { %"class.std::locale::_Impl"* }
%"class.std::locale::_Impl" = type { i32, %"class.std::locale::facet"**, i64, %"class.std::locale::facet"**, i8** }
%"class.std::locale::facet" = type <{ i32 (...)**, i32, [4 x i8] }>
%"class.std::basic_ostream" = type { i32 (...)**, %"class.std::basic_ios" }
%"class.std::basic_streambuf" = type { i32 (...)**, i8*, i8*, i8*, i8*, i8*, i8*, %"class.std::locale" }
%"class.std::ctype" = type <{ %"class.std::locale::facet.base", [4 x i8], %struct.__locale_struct*, i8, [7 x i8], i32*, i32*, i16*, i8, [256 x i8], [256 x i8], i8, [6 x i8] }>
%"class.std::locale::facet.base" = type <{ i32 (...)**, i32 }>
%struct.__locale_struct = type { [13 x %struct.__locale_data*], i16*, i32*, i32*, [13 x i8*] }
%struct.__locale_data = type opaque
%"class.std::num_put" = type { %"class.std::locale::facet.base", [4 x i8] }
%"class.std::num_get" = type { %"class.std::locale::facet.base", [4 x i8] }

@_ZStL8__ioinit = internal global %"class.std::ios_base::Init" zeroinitializer, align 1
@__dso_handle = external hidden global i8
@_ZSt3cin = external dso_local global %"class.std::basic_istream", align 8
@_ZSt4cout = external dso_local global %"class.std::basic_ostream", align 8
@llvm.global_ctors = appending global [1 x { i32, void ()*, i8* }] [{ i32, void ()*, i8* } { i32 65535, void ()* @_GLOBAL__sub_I_309.cpp, i8* null }]

; Function Attrs: noinline uwtable
define internal void @__cxx_global_var_init() #0 section ".text.startup" {
  call void @_ZNSt8ios_base4InitC1Ev(%"class.std::ios_base::Init"* @_ZStL8__ioinit)
  %1 = call i32 @__cxa_atexit(void (i8*)* bitcast (void (%"class.std::ios_base::Init"*)* @_ZNSt8ios_base4InitD1Ev to void (i8*)*), i8* getelementptr inbounds (%"class.std::ios_base::Init", %"class.std::ios_base::Init"* @_ZStL8__ioinit, i32 0, i32 0), i8* @__dso_handle) #3
  ret void
}

declare dso_local void @_ZNSt8ios_base4InitC1Ev(%"class.std::ios_base::Init"*) unnamed_addr #1

; Function Attrs: nounwind
declare dso_local void @_ZNSt8ios_base4InitD1Ev(%"class.std::ios_base::Init"*) unnamed_addr #2

; Function Attrs: nounwind
declare dso_local i32 @__cxa_atexit(void (i8*)*, i8*, i8*) #3

; Function Attrs: noinline norecurse uwtable
define dso_local i32 @main() #4 {
  %1 = alloca i32, align 4
  %2 = alloca [100 x i8], align 16
  %3 = alloca [100 x i8], align 16
  %4 = alloca i32, align 4
  %5 = alloca i32, align 4
  store i32 0, i32* %1, align 4
  %6 = getelementptr inbounds [100 x i8], [100 x i8]* %2, i64 0, i64 0
  %7 = call dereferenceable(280) %"class.std::basic_istream"* @_ZNSi7getlineEPcl(%"class.std::basic_istream"* @_ZSt3cin, i8* %6, i64 101)
  store i32 0, i32* %5, align 4
  store i32 0, i32* %4, align 4
  br label %8

8:                                                ; preds = %68, %0
  %9 = load i32, i32* %4, align 4
  %10 = sext i32 %9 to i64
  %11 = getelementptr inbounds [100 x i8], [100 x i8]* %2, i64 0, i64 %10
  %12 = load i8, i8* %11, align 1
  %13 = sext i8 %12 to i32
  %14 = icmp ne i32 %13, 0
  br i1 %14, label %15, label %71

15:                                               ; preds = %8
  %16 = load i32, i32* %4, align 4
  %17 = sext i32 %16 to i64
  %18 = getelementptr inbounds [100 x i8], [100 x i8]* %2, i64 0, i64 %17
  %19 = load i8, i8* %18, align 1
  %20 = sext i8 %19 to i32
  %21 = icmp ne i32 %20, 32
  br i1 %21, label %22, label %30

22:                                               ; preds = %15
  %23 = load i32, i32* %4, align 4
  %24 = sext i32 %23 to i64
  %25 = getelementptr inbounds [100 x i8], [100 x i8]* %2, i64 0, i64 %24
  %26 = load i8, i8* %25, align 1
  %27 = load i32, i32* %5, align 4
  %28 = sext i32 %27 to i64
  %29 = getelementptr inbounds [100 x i8], [100 x i8]* %3, i64 0, i64 %28
  store i8 %26, i8* %29, align 1
  br label %30

30:                                               ; preds = %22, %15
  %31 = load i32, i32* %4, align 4
  %32 = sub nsw i32 %31, 1
  %33 = sext i32 %32 to i64
  %34 = getelementptr inbounds [100 x i8], [100 x i8]* %2, i64 0, i64 %33
  %35 = load i8, i8* %34, align 1
  %36 = sext i8 %35 to i32
  %37 = icmp ne i32 %36, 32
  br i1 %37, label %38, label %49

38:                                               ; preds = %30
  %39 = load i32, i32* %4, align 4
  %40 = sext i32 %39 to i64
  %41 = getelementptr inbounds [100 x i8], [100 x i8]* %2, i64 0, i64 %40
  %42 = load i8, i8* %41, align 1
  %43 = sext i8 %42 to i32
  %44 = icmp eq i32 %43, 32
  br i1 %44, label %45, label %49

45:                                               ; preds = %38
  %46 = load i32, i32* %5, align 4
  %47 = sext i32 %46 to i64
  %48 = getelementptr inbounds [100 x i8], [100 x i8]* %3, i64 0, i64 %47
  store i8 32, i8* %48, align 1
  br label %49

49:                                               ; preds = %45, %38, %30
  %50 = load i32, i32* %4, align 4
  %51 = sub nsw i32 %50, 1
  %52 = sext i32 %51 to i64
  %53 = getelementptr inbounds [100 x i8], [100 x i8]* %2, i64 0, i64 %52
  %54 = load i8, i8* %53, align 1
  %55 = sext i8 %54 to i32
  %56 = icmp eq i32 %55, 32
  br i1 %56, label %57, label %65

57:                                               ; preds = %49
  %58 = load i32, i32* %4, align 4
  %59 = sext i32 %58 to i64
  %60 = getelementptr inbounds [100 x i8], [100 x i8]* %2, i64 0, i64 %59
  %61 = load i8, i8* %60, align 1
  %62 = sext i8 %61 to i32
  %63 = icmp eq i32 %62, 32
  br i1 %63, label %64, label %65

64:                                               ; preds = %57
  br label %68

65:                                               ; preds = %57, %49
  %66 = load i32, i32* %5, align 4
  %67 = add nsw i32 %66, 1
  store i32 %67, i32* %5, align 4
  br label %68

68:                                               ; preds = %65, %64
  %69 = load i32, i32* %4, align 4
  %70 = add nsw i32 %69, 1
  store i32 %70, i32* %4, align 4
  br label %8

71:                                               ; preds = %8
  %72 = load i32, i32* %5, align 4
  %73 = sext i32 %72 to i64
  %74 = getelementptr inbounds [100 x i8], [100 x i8]* %3, i64 0, i64 %73
  store i8 0, i8* %74, align 1
  store i32 0, i32* %4, align 4
  br label %75

75:                                               ; preds = %88, %71
  %76 = load i32, i32* %4, align 4
  %77 = sext i32 %76 to i64
  %78 = getelementptr inbounds [100 x i8], [100 x i8]* %3, i64 0, i64 %77
  %79 = load i8, i8* %78, align 1
  %80 = sext i8 %79 to i32
  %81 = icmp ne i32 %80, 0
  br i1 %81, label %82, label %91

82:                                               ; preds = %75
  %83 = load i32, i32* %4, align 4
  %84 = sext i32 %83 to i64
  %85 = getelementptr inbounds [100 x i8], [100 x i8]* %3, i64 0, i64 %84
  %86 = load i8, i8* %85, align 1
  %87 = call dereferenceable(272) %"class.std::basic_ostream"* @_ZStlsISt11char_traitsIcEERSt13basic_ostreamIcT_ES5_c(%"class.std::basic_ostream"* dereferenceable(272) @_ZSt4cout, i8 signext %86)
  br label %88

88:                                               ; preds = %82
  %89 = load i32, i32* %4, align 4
  %90 = add nsw i32 %89, 1
  store i32 %90, i32* %4, align 4
  br label %75

91:                                               ; preds = %75
  ret i32 0
}

declare dso_local dereferenceable(280) %"class.std::basic_istream"* @_ZNSi7getlineEPcl(%"class.std::basic_istream"*, i8*, i64) #1

declare dso_local dereferenceable(272) %"class.std::basic_ostream"* @_ZStlsISt11char_traitsIcEERSt13basic_ostreamIcT_ES5_c(%"class.std::basic_ostream"* dereferenceable(272), i8 signext) #1

; Function Attrs: noinline uwtable
define internal void @_GLOBAL__sub_I_309.cpp() #0 section ".text.startup" {
  call void @__cxx_global_var_init()
  ret void
}


!llvm.module.flags = !{!0}
!llvm.ident = !{!1}

!0 = !{i32 1, !"wchar_size", i32 4}
!1 = !{!"clang version 10.0.0-4ubuntu1 "}
